target datalayout = "e-m:e-p270:32:32-p271:32:32-p272:64:64-i64:64-i128:128-f80:128-n8:16:32:64-S128"
target triple = "x86_64-pc-linux-gnu"

%struct.DdManager = type { %struct.DdNode, ptr, ptr, ptr, ptr, ptr, ptr, ptr, i32, i32, double, double, double, i32, i32, i32, i32, i32, i32, ptr, ptr, %struct.DdSubtable, i32, i32, i32, i32, i32, i32, i32, double, i32, i32, i32, ptr, i64, double, i32, ptr, ptr, ptr, ptr, ptr, ptr, ptr, i32, ptr, ptr, ptr, ptr, ptr, ptr, i32, i32, i32, double, i32, i32, i32, i32, double, double, i32, i32, i32, i32, i32, i32, i32, i32, i32, ptr, ptr, i32, i32, i32, i32, i32, i32, ptr, ptr, ptr, ptr, ptr, ptr, ptr, ptr, i32, i64, i64, i64, i32, i64, i64, double, double, double, double, double, double, i32, ptr, ptr, i64 }
%struct.DdNode = type { i32, i32, ptr, %union.anon, i64 }
%union.anon = type { %struct.DdChildren }
%struct.DdChildren = type { ptr, ptr }
%struct.DdSubtable = type { ptr, i32, i32, i32, i32, i32, i32, i32, i32, i32, i32, i32 }
%struct.EpDoubleStruct = type { %union.EpTypeUnion, i32 }
%union.EpTypeUnion = type { double }

@background = internal global ptr null, align 8
@zero = internal global ptr null, align 8

; Function Attrs: nounwind uwtable
define i32 @Cudd_EpdCountMinterm(ptr noundef %0, ptr noundef %1, i32 noundef %2, ptr noundef %3) #0 {
  %5 = alloca i32, align 4
  %6 = alloca ptr, align 8
  %7 = alloca ptr, align 8
  %8 = alloca i32, align 4
  %9 = alloca ptr, align 8
  %10 = alloca %struct.EpDoubleStruct, align 8
  %11 = alloca %struct.EpDoubleStruct, align 8
  %12 = alloca ptr, align 8
  %13 = alloca i32, align 4
  store ptr %0, ptr %6, align 8
  store ptr %1, ptr %7, align 8
  store i32 %2, ptr %8, align 4
  store ptr %3, ptr %9, align 8
  %14 = load ptr, ptr %6, align 8
  %15 = getelementptr inbounds %struct.DdManager, ptr %14, i32 0, i32 5
  %16 = load ptr, ptr %15, align 8
  store ptr %16, ptr @background, align 8
  %17 = load ptr, ptr %6, align 8
  %18 = getelementptr inbounds %struct.DdManager, ptr %17, i32 0, i32 1
  %19 = load ptr, ptr %18, align 8
  %20 = ptrtoint ptr %19 to i64
  %21 = xor i64 %20, 1
  %22 = inttoptr i64 %21 to ptr
  store ptr %22, ptr @zero, align 8
  %23 = load i32, ptr %8, align 4
  call void @EpdPow2(i32 noundef %23, ptr noundef %10)
  %24 = call ptr @st__init_table(ptr noundef @EpdCmp, ptr noundef @st__ptrhash)
  store ptr %24, ptr %12, align 8
  %25 = load ptr, ptr %12, align 8
  %26 = icmp eq ptr %25, null
  br i1 %26, label %27, label %29

27:                                               ; preds = %4
  %28 = load ptr, ptr %9, align 8
  call void @EpdMakeZero(ptr noundef %28, i32 noundef 0)
  store i32 -1, ptr %5, align 4
  br label %54

29:                                               ; preds = %4
  %30 = load ptr, ptr %7, align 8
  %31 = ptrtoint ptr %30 to i64
  %32 = and i64 %31, -2
  %33 = inttoptr i64 %32 to ptr
  %34 = load ptr, ptr %9, align 8
  %35 = load ptr, ptr %12, align 8
  %36 = call i32 @ddEpdCountMintermAux(ptr noundef %33, ptr noundef %10, ptr noundef %34, ptr noundef %35)
  store i32 %36, ptr %13, align 4
  %37 = load ptr, ptr %12, align 8
  %38 = call i32 @st__foreach(ptr noundef %37, ptr noundef @ddEpdFree, ptr noundef null)
  %39 = load ptr, ptr %12, align 8
  call void @st__free_table(ptr noundef %39)
  %40 = load i32, ptr %13, align 4
  %41 = icmp eq i32 %40, -1
  br i1 %41, label %42, label %44

42:                                               ; preds = %29
  %43 = load ptr, ptr %9, align 8
  call void @EpdMakeZero(ptr noundef %43, i32 noundef 0)
  store i32 -1, ptr %5, align 4
  br label %54

44:                                               ; preds = %29
  %45 = load ptr, ptr %7, align 8
  %46 = ptrtoint ptr %45 to i64
  %47 = and i64 %46, 1
  %48 = trunc i64 %47 to i32
  %49 = icmp ne i32 %48, 0
  br i1 %49, label %50, label %53

50:                                               ; preds = %44
  %51 = load ptr, ptr %9, align 8
  call void @EpdSubtract3(ptr noundef %10, ptr noundef %51, ptr noundef %11)
  %52 = load ptr, ptr %9, align 8
  call void @EpdCopy(ptr noundef %11, ptr noundef %52)
  br label %53

53:                                               ; preds = %50, %44
  store i32 0, ptr %5, align 4
  br label %54

54:                                               ; preds = %53, %42, %27
  %55 = load i32, ptr %5, align 4
  ret i32 %55
}