; Function Attrs: nounwind uwtable
define range(i32 -1, 1) i32 @Cudd_EpdCountMinterm(ptr noundef readonly captures(none) %0, ptr noundef %1, i32 noundef %2, ptr noundef %3) local_unnamed_addr #0 {
  %5 = alloca %struct.EpDoubleStruct, align 8
  %6 = alloca %struct.EpDoubleStruct, align 8
  %7 = getelementptr inbounds nuw i8, ptr %0, i64 72
  %8 = load ptr, ptr %7, align 8
  store ptr %8, ptr @background, align 8
  %9 = getelementptr inbounds nuw i8, ptr %0, i64 40
  %10 = load ptr, ptr %9, align 8
  %11 = ptrtoint ptr %10 to i64
  %12 = xor i64 %11, 1
  %13 = inttoptr i64 %12 to ptr
  store ptr %13, ptr @zero, align 8
  call void @EpdPow2(i32 noundef %2, ptr noundef nonnull %5) #23
  %14 = call ptr @st__init_table(ptr noundef nonnull @EpdCmp, ptr noundef nonnull @st__ptrhash) #23
  %15 = icmp eq ptr %14, null
  br i1 %15, label %16, label %17

16:                                               ; preds = %4
  call void @EpdMakeZero(ptr noundef %3, i32 noundef 0) #23
  br label %28

17:                                               ; preds = %4
  %18 = ptrtoint ptr %1 to i64
  %19 = and i64 %18, -2
  %20 = inttoptr i64 %19 to ptr
  %21 = call fastcc i32 @ddEpdCountMintermAux(ptr noundef %20, ptr noundef %5, ptr noundef %3, ptr noundef %14)
  %22 = call i32 @st__foreach(ptr noundef nonnull %14, ptr noundef nonnull @ddEpdFree, ptr noundef null) #23
  call void @st__free_table(ptr noundef nonnull %14) #23
  %23 = icmp eq i32 %21, -1
  br i1 %23, label %24, label %25

24:                                               ; preds = %17
  call void @EpdMakeZero(ptr noundef %3, i32 noundef 0) #23
  br label %28

25:                                               ; preds = %17
  %26 = and i64 %18, 1
  %.not = icmp eq i64 %26, 0
  br i1 %.not, label %28, label %27

27:                                               ; preds = %25
  call void @EpdSubtract3(ptr noundef nonnull %5, ptr noundef %3, ptr noundef nonnull %6) #23
  call void @EpdCopy(ptr noundef nonnull %6, ptr noundef %3) #23
  br label %28

28:                                               ; preds = %25, %27, %24, %16
  %.0 = phi i32 [ -1, %16 ], [ -1, %24 ], [ 0, %27 ], [ 0, %25 ]
  ret i32 %.0
}